target datalayout = "e-m:e-p270:32:32-p271:32:32-p272:64:64-i64:64-i128:128-f80:128-n8:16:32:64-S128"
target triple = "x86_64-pc-linux-gnu"

; Function Attrs: nounwind uwtable
define i32 @cli_strntoul_wrap(ptr noundef %0, i64 noundef %1, i32 noundef %2, i32 noundef %3, ptr noundef %4) #0 {
  %6 = alloca i32, align 4
  %7 = alloca ptr, align 8
  %8 = alloca i64, align 8
  %9 = alloca i32, align 4
  %10 = alloca i32, align 4
  %11 = alloca ptr, align 8
  %12 = alloca ptr, align 8
  %13 = alloca i64, align 8
  store ptr %0, ptr %7, align 8
  store i64 %1, ptr %8, align 8
  store i32 %2, ptr %9, align 4
  store i32 %3, ptr %10, align 4
  store ptr %4, ptr %11, align 8
  store ptr null, ptr %12, align 8
  %14 = load i64, ptr %8, align 8
  %15 = icmp eq i64 %14, 0
  br i1 %15, label %22, label %16

16:                                               ; preds = %5
  %17 = load ptr, ptr %7, align 8
  %18 = icmp ne ptr %17, null
  br i1 %18, label %19, label %22

19:                                               ; preds = %16
  %20 = load ptr, ptr %11, align 8
  %21 = icmp ne ptr %20, null
  br i1 %21, label %23, label %22

22:                                               ; preds = %19, %16, %5
  store i32 27, ptr %6, align 4
  br label %59

23:                                               ; preds = %19
  %24 = call ptr @__errno_location() #10
  store i32 0, ptr %24, align 4
  %25 = load ptr, ptr %7, align 8
  %26 = load i64, ptr %8, align 8
  %27 = load i32, ptr %10, align 4
  %28 = call i64 @cli_strntoul(ptr noundef %25, i64 noundef %26, ptr noundef %12, i32 noundef %27)
  store i64 %28, ptr %13, align 8
  %29 = load i64, ptr %13, align 8
  %30 = icmp eq i64 %29, -1
  br i1 %30, label %31, label %36

31:                                               ; preds = %23
  %32 = call ptr @__errno_location() #10
  %33 = load i32, ptr %32, align 4
  %34 = icmp eq i32 %33, 34
  br i1 %34, label %35, label %36

35:                                               ; preds = %31
  store i32 27, ptr %6, align 4
  br label %59

36:                                               ; preds = %31, %23
  %37 = load ptr, ptr %12, align 8
  %38 = load ptr, ptr %7, align 8
  %39 = icmp eq ptr %37, %38
  br i1 %39, label %40, label %41

40:                                               ; preds = %36
  store i32 27, ptr %6, align 4
  br label %59

41:                                               ; preds = %36
  %42 = load i32, ptr %9, align 4
  %43 = icmp ne i32 %42, 0
  br i1 %43, label %44, label %56

44:                                               ; preds = %41
  %45 = load ptr, ptr %12, align 8
  %46 = load ptr, ptr %7, align 8
  %47 = load i64, ptr %8, align 8
  %48 = getelementptr inbounds i8, ptr %46, i64 %47
  %49 = icmp ult ptr %45, %48
  br i1 %49, label %50, label %56

50:                                               ; preds = %44
  %51 = load ptr, ptr %12, align 8
  %52 = load i8, ptr %51, align 1
  %53 = sext i8 %52 to i32
  %54 = icmp ne i32 %53, 0
  br i1 %54, label %55, label %56

55:                                               ; preds = %50
  store i32 27, ptr %6, align 4
  br label %59

56:                                               ; preds = %50, %44, %41
  %57 = load i64, ptr %13, align 8
  %58 = load ptr, ptr %11, align 8
  store i64 %57, ptr %58, align 8
  store i32 0, ptr %6, align 4
  br label %59

59:                                               ; preds = %56, %55, %40, %35, %22
  %60 = load i32, ptr %6, align 4
  ret i32 %60
}