; Function Attrs: nofree nosync nounwind memory(readwrite, inaccessiblemem: none) uwtable
define noundef i32 @cli_strntoul_wrap(ptr noundef %0, i64 noundef %1, i32 noundef %2, i32 noundef %3, ptr noundef writeonly %4) local_unnamed_addr #17 {
  %6 = alloca ptr, align 8
  store ptr null, ptr %6, align 8
  %7 = icmp ne i64 %1, 0
  %8 = icmp ne ptr %0, null
  %or.cond = and i1 %8, %7
  %9 = icmp ne ptr %4, null
  %or.cond3 = and i1 %or.cond, %9
  br i1 %or.cond3, label %10, label %26

10:                                               ; preds = %5
  %11 = tail call ptr @__errno_location() #29
  store i32 0, ptr %11, align 4
  %12 = call i64 @cli_strntoul(ptr noundef nonnull %0, i64 noundef %1, ptr noundef nonnull %6, i32 noundef %3)
  %13 = icmp eq i64 %12, -1
  br i1 %13, label %14, label %17

14:                                               ; preds = %10
  %15 = load i32, ptr %11, align 4
  %16 = icmp eq i32 %15, 34
  br i1 %16, label %26, label %17

17:                                               ; preds = %14, %10
  %18 = load ptr, ptr %6, align 8
  %19 = icmp eq ptr %18, %0
  br i1 %19, label %26, label %20

20:                                               ; preds = %17
  %.not = icmp ne i32 %2, 0
  %21 = getelementptr inbounds i8, ptr %0, i64 %1
  %22 = icmp ult ptr %18, %21
  %or.cond22 = select i1 %.not, i1 %22, i1 false
  br i1 %or.cond22, label %23, label %25

23:                                               ; preds = %20
  %24 = load i8, ptr %18, align 1
  %.not20 = icmp eq i8 %24, 0
  br i1 %.not20, label %25, label %26

25:                                               ; preds = %23, %20
  store i64 %12, ptr %4, align 8
  br label %26

26:                                               ; preds = %23, %17, %14, %5, %25
  %.0 = phi i32 [ 0, %25 ], [ 27, %5 ], [ 27, %14 ], [ 27, %17 ], [ 27, %23 ]
  ret i32 %.0
}